(lp0
(lp1
cnumpy.core.multiarray
_reconstruct
p2
(cnumpy
ndarray
p3
(I0
tp4
S'b'
p5
tp6
Rp7
(I1
(tcnumpy
dtype
p8
(S'f4'
p9
I0
I1
tp10
Rp11
(I3
S'<'
p12
NNNI-1
I-1
I0
tp13
bI00
S'it\xd6J'
p14
tp15
baa(lp16
g2
(g3
(I0
tp17
g5
tp18
Rp19
(I1
(tg11
I00
S'\x1c\xec\xd3J'
p20
tp21
baa(lp22
g2
(g3
(I0
tp23
g5
tp24
Rp25
(I1
(tg11
I00
S'RC\xd6J'
p26
tp27
baa(lp28
g2
(g3
(I0
tp29
g5
tp30
Rp31
(I1
(tg11
I00
S'\x135\xd8J'
p32
tp33
baa(lp34
g2
(g3
(I0
tp35
g5
tp36
Rp37
(I1
(tg11
I00
S'|K\xccJ'
p38
tp39
baa(lp40
g2
(g3
(I0
tp41
g5
tp42
Rp43
(I1
(tg11
I00
S'\\\xc3\xceJ'
p44
tp45
baa(lp46
g2
(g3
(I0
tp47
g5
tp48
Rp49
(I1
(tg11
I00
S'\xd0v\xcfJ'
p50
tp51
baa(lp52
g2
(g3
(I0
tp53
g5
tp54
Rp55
(I1
(tg11
I00
S'UH\xd5J'
p56
tp57
baa(lp58
g2
(g3
(I0
tp59
g5
tp60
Rp61
(I1
(tg11
I00
S'\xc1\x0f\xcdJ'
p62
tp63
baa(lp64
g2
(g3
(I0
tp65
g5
tp66
Rp67
(I1
(tg11
I00
S'\xb7%\xcfJ'
p68
tp69
baa(lp70
g2
(g3
(I0
tp71
g5
tp72
Rp73
(I1
(tg11
I00
S'?9\xcbJ'
p74
tp75
baa(lp76
g2
(g3
(I0
tp77
g5
tp78
Rp79
(I1
(tg11
I00
S'\xce\xbb\xc9J'
p80
tp81
baa(lp82
g2
(g3
(I0
tp83
g5
tp84
Rp85
(I1
(tg11
I00
S' $\xc8J'
p86
tp87
baa(lp88
g2
(g3
(I0
tp89
g5
tp90
Rp91
(I1
(tg11
I00
S'\xd7V\xc9J'
p92
tp93
baa(lp94
g2
(g3
(I0
tp95
g5
tp96
Rp97
(I1
(tg11
I00
S'}\xee\xc7J'
p98
tp99
baa(lp100
g2
(g3
(I0
tp101
g5
tp102
Rp103
(I1
(tg11
I00
S'\x94r\xc7J'
p104
tp105
baa(lp106
g2
(g3
(I0
tp107
g5
tp108
Rp109
(I1
(tg11
I00
S'F\xaf\xc5J'
p110
tp111
baa(lp112
g2
(g3
(I0
tp113
g5
tp114
Rp115
(I1
(tg11
I00
S'4X\xc5J'
p116
tp117
baa(lp118
g2
(g3
(I0
tp119
g5
tp120
Rp121
(I1
(tg11
I00
S'Gt\xc2J'
p122
tp123
baa(lp124
g2
(g3
(I0
tp125
g5
tp126
Rp127
(I1
(tg11
I00
S']\xcf\xc4J'
p128
tp129
baa(lp130
g2
(g3
(I0
tp131
g5
tp132
Rp133
(I1
(tg11
I00
S'F\xd9\xc1J'
p134
tp135
baa(lp136
g2
(g3
(I0
tp137
g5
tp138
Rp139
(I1
(tg11
I00
S'j\xcc\xc1J'
p140
tp141
baa(lp142
g2
(g3
(I0
tp143
g5
tp144
Rp145
(I1
(tg11
I00
S'\xd29\xc1J'
p146
tp147
baa(lp148
g2
(g3
(I0
tp149
g5
tp150
Rp151
(I1
(tg11
I00
S'+\x9e\xbeJ'
p152
tp153
baa(lp154
g2
(g3
(I0
tp155
g5
tp156
Rp157
(I1
(tg11
I00
S'\x0c}\xbfJ'
p158
tp159
baa.